; ModuleID = '20/282.c'
source_filename = "20/282.c"
target datalayout = "e-m:e-p270:32:32-p271:32:32-p272:64:64-i64:64-f80:128-n8:16:32:64-S128"
target triple = "x86_64-pc-linux-gnu"

@.str = private unnamed_addr constant [3 x i8] c"%c\00", align 1
@.str.1 = private unnamed_addr constant [2 x i8] c"\0A\00", align 1
@.str.2 = private unnamed_addr constant [6 x i8] c"%s %s\00", align 1

; Function Attrs: noinline nounwind uwtable
define dso_local i8* @findmax(i8* %0) #0 {
  %2 = alloca i8*, align 8
  %3 = alloca i8*, align 8
  store i8* %0, i8** %2, align 8
  %4 = load i8*, i8** %2, align 8
  store i8* %4, i8** %3, align 8
  br label %5

5:                                                ; preds = %21, %1
  %6 = load i8*, i8** %2, align 8
  %7 = load i8, i8* %6, align 1
  %8 = sext i8 %7 to i32
  %9 = icmp ne i32 %8, 0
  br i1 %9, label %10, label %24

10:                                               ; preds = %5
  %11 = load i8*, i8** %2, align 8
  %12 = load i8, i8* %11, align 1
  %13 = sext i8 %12 to i32
  %14 = load i8*, i8** %3, align 8
  %15 = load i8, i8* %14, align 1
  %16 = sext i8 %15 to i32
  %17 = icmp sgt i32 %13, %16
  br i1 %17, label %18, label %20

18:                                               ; preds = %10
  %19 = load i8*, i8** %2, align 8
  store i8* %19, i8** %3, align 8
  br label %20

20:                                               ; preds = %18, %10
  br label %21

21:                                               ; preds = %20
  %22 = load i8*, i8** %2, align 8
  %23 = getelementptr inbounds i8, i8* %22, i32 1
  store i8* %23, i8** %2, align 8
  br label %5

24:                                               ; preds = %5
  %25 = load i8*, i8** %3, align 8
  ret i8* %25
}

; Function Attrs: noinline nounwind uwtable
define dso_local void @insert(i8* %0, i8* %1) #0 {
  %3 = alloca i8*, align 8
  %4 = alloca i8*, align 8
  store i8* %0, i8** %3, align 8
  store i8* %1, i8** %4, align 8
  br label %5

5:                                                ; preds = %19, %2
  %6 = load i8*, i8** %3, align 8
  %7 = load i8, i8* %6, align 1
  %8 = sext i8 %7 to i32
  %9 = load i8*, i8** %3, align 8
  %10 = call i8* @findmax(i8* %9)
  %11 = load i8, i8* %10, align 1
  %12 = sext i8 %11 to i32
  %13 = icmp ne i32 %8, %12
  br i1 %13, label %14, label %22

14:                                               ; preds = %5
  %15 = load i8*, i8** %3, align 8
  %16 = load i8, i8* %15, align 1
  %17 = sext i8 %16 to i32
  %18 = call i32 (i8*, ...) @printf(i8* getelementptr inbounds ([3 x i8], [3 x i8]* @.str, i64 0, i64 0), i32 %17)
  br label %19

19:                                               ; preds = %14
  %20 = load i8*, i8** %3, align 8
  %21 = getelementptr inbounds i8, i8* %20, i32 1
  store i8* %21, i8** %3, align 8
  br label %5

22:                                               ; preds = %5
  %23 = load i8*, i8** %3, align 8
  %24 = load i8, i8* %23, align 1
  %25 = sext i8 %24 to i32
  %26 = call i32 (i8*, ...) @printf(i8* getelementptr inbounds ([3 x i8], [3 x i8]* @.str, i64 0, i64 0), i32 %25)
  br label %27

27:                                               ; preds = %37, %22
  %28 = load i8*, i8** %4, align 8
  %29 = load i8, i8* %28, align 1
  %30 = sext i8 %29 to i32
  %31 = icmp ne i32 %30, 0
  br i1 %31, label %32, label %40

32:                                               ; preds = %27
  %33 = load i8*, i8** %4, align 8
  %34 = load i8, i8* %33, align 1
  %35 = sext i8 %34 to i32
  %36 = call i32 (i8*, ...) @printf(i8* getelementptr inbounds ([3 x i8], [3 x i8]* @.str, i64 0, i64 0), i32 %35)
  br label %37

37:                                               ; preds = %32
  %38 = load i8*, i8** %4, align 8
  %39 = getelementptr inbounds i8, i8* %38, i32 1
  store i8* %39, i8** %4, align 8
  br label %27

40:                                               ; preds = %27
  %41 = load i8*, i8** %3, align 8
  %42 = getelementptr inbounds i8, i8* %41, i32 1
  store i8* %42, i8** %3, align 8
  br label %43

43:                                               ; preds = %53, %40
  %44 = load i8*, i8** %3, align 8
  %45 = load i8, i8* %44, align 1
  %46 = sext i8 %45 to i32
  %47 = icmp ne i32 %46, 0
  br i1 %47, label %48, label %56

48:                                               ; preds = %43
  %49 = load i8*, i8** %3, align 8
  %50 = load i8, i8* %49, align 1
  %51 = sext i8 %50 to i32
  %52 = call i32 (i8*, ...) @printf(i8* getelementptr inbounds ([3 x i8], [3 x i8]* @.str, i64 0, i64 0), i32 %51)
  br label %53

53:                                               ; preds = %48
  %54 = load i8*, i8** %3, align 8
  %55 = getelementptr inbounds i8, i8* %54, i32 1
  store i8* %55, i8** %3, align 8
  br label %43

56:                                               ; preds = %43
  %57 = call i32 (i8*, ...) @printf(i8* getelementptr inbounds ([2 x i8], [2 x i8]* @.str.1, i64 0, i64 0))
  ret void
}

declare dso_local i32 @printf(i8*, ...) #1

; Function Attrs: noinline nounwind uwtable
define dso_local void @main() #0 {
  %1 = alloca [10 x i8], align 1
  %2 = alloca [3 x i8], align 1
  %3 = alloca [13 x i8], align 1
  %4 = alloca i8*, align 8
  %5 = alloca i8*, align 8
  %6 = alloca i8*, align 8
  %7 = getelementptr inbounds [10 x i8], [10 x i8]* %1, i64 0, i64 0
  store i8* %7, i8** %4, align 8
  %8 = getelementptr inbounds [3 x i8], [3 x i8]* %2, i64 0, i64 0
  store i8* %8, i8** %5, align 8
  %9 = getelementptr inbounds [13 x i8], [13 x i8]* %3, i64 0, i64 0
  store i8* %9, i8** %6, align 8
  br label %10

10:                                               ; preds = %15, %0
  %11 = getelementptr inbounds [10 x i8], [10 x i8]* %1, i64 0, i64 0
  %12 = getelementptr inbounds [3 x i8], [3 x i8]* %2, i64 0, i64 0
  %13 = call i32 (i8*, ...) @__isoc99_scanf(i8* getelementptr inbounds ([6 x i8], [6 x i8]* @.str.2, i64 0, i64 0), i8* %11, i8* %12)
  %14 = icmp ne i32 %13, -1
  br i1 %14, label %15, label %18

15:                                               ; preds = %10
  %16 = load i8*, i8** %4, align 8
  %17 = load i8*, i8** %5, align 8
  call void @insert(i8* %16, i8* %17)
  br label %10

18:                                               ; preds = %10
  ret void
}

declare dso_local i32 @__isoc99_scanf(i8*, ...) #1


!llvm.module.flags = !{!0}
!llvm.ident = !{!1}

!0 = !{i32 1, !"wchar_size", i32 4}
!1 = !{!"clang version 10.0.0-4ubuntu1 "}
